target datalayout = "e-m:e-p270:32:32-p271:32:32-p272:64:64-i64:64-i128:128-f80:128-n8:16:32:64-S128"
target triple = "x86_64-pc-linux-gnu"

; Function Attrs: nounwind uwtable
define void @bn_mul_low_recursive(ptr noundef %0, ptr noundef %1, ptr noundef %2, i32 noundef %3, ptr noundef %4) #0 {
  %6 = alloca ptr, align 8
  %7 = alloca ptr, align 8
  %8 = alloca ptr, align 8
  %9 = alloca i32, align 4
  %10 = alloca ptr, align 8
  %11 = alloca i32, align 4
  store ptr %0, ptr %6, align 8, !tbaa !3
  store ptr %1, ptr %7, align 8, !tbaa !3
  store ptr %2, ptr %8, align 8, !tbaa !3
  store i32 %3, ptr %9, align 4, !tbaa !8
  store ptr %4, ptr %10, align 8, !tbaa !3
  call void @llvm.lifetime.start.p0(i64 4, ptr %11) #4
  %12 = load i32, ptr %9, align 4, !tbaa !8
  %13 = sdiv i32 %12, 2
  store i32 %13, ptr %11, align 4, !tbaa !8
  %14 = load ptr, ptr %6, align 8, !tbaa !3
  %15 = load ptr, ptr %7, align 8, !tbaa !3
  %16 = load ptr, ptr %8, align 8, !tbaa !3
  %17 = load i32, ptr %11, align 4, !tbaa !8
  %18 = load ptr, ptr %10, align 8, !tbaa !3
  %19 = getelementptr inbounds i64, ptr %18, i64 0
  call void @bn_mul_recursive(ptr noundef %14, ptr noundef %15, ptr noundef %16, i32 noundef %17, i32 noundef 0, i32 noundef 0, ptr noundef %19)
  %20 = load i32, ptr %11, align 4, !tbaa !8
  %21 = icmp sge i32 %20, 32
  br i1 %21, label %22, label %73

22:                                               ; preds = %5
  %23 = load ptr, ptr %10, align 8, !tbaa !3
  %24 = getelementptr inbounds i64, ptr %23, i64 0
  %25 = load ptr, ptr %7, align 8, !tbaa !3
  %26 = getelementptr inbounds i64, ptr %25, i64 0
  %27 = load ptr, ptr %8, align 8, !tbaa !3
  %28 = load i32, ptr %11, align 4, !tbaa !8
  %29 = sext i32 %28 to i64
  %30 = getelementptr inbounds i64, ptr %27, i64 %29
  %31 = load i32, ptr %11, align 4, !tbaa !8
  %32 = load ptr, ptr %10, align 8, !tbaa !3
  %33 = load i32, ptr %9, align 4, !tbaa !8
  %34 = sext i32 %33 to i64
  %35 = getelementptr inbounds i64, ptr %32, i64 %34
  call void @bn_mul_low_recursive(ptr noundef %24, ptr noundef %26, ptr noundef %30, i32 noundef %31, ptr noundef %35)
  %36 = load ptr, ptr %6, align 8, !tbaa !3
  %37 = load i32, ptr %11, align 4, !tbaa !8
  %38 = sext i32 %37 to i64
  %39 = getelementptr inbounds i64, ptr %36, i64 %38
  %40 = load ptr, ptr %6, align 8, !tbaa !3
  %41 = load i32, ptr %11, align 4, !tbaa !8
  %42 = sext i32 %41 to i64
  %43 = getelementptr inbounds i64, ptr %40, i64 %42
  %44 = load ptr, ptr %10, align 8, !tbaa !3
  %45 = getelementptr inbounds i64, ptr %44, i64 0
  %46 = load i32, ptr %11, align 4, !tbaa !8
  %47 = call i64 @bn_add_words(ptr noundef %39, ptr noundef %43, ptr noundef %45, i32 noundef %46)
  %48 = load ptr, ptr %10, align 8, !tbaa !3
  %49 = getelementptr inbounds i64, ptr %48, i64 0
  %50 = load ptr, ptr %7, align 8, !tbaa !3
  %51 = load i32, ptr %11, align 4, !tbaa !8
  %52 = sext i32 %51 to i64
  %53 = getelementptr inbounds i64, ptr %50, i64 %52
  %54 = load ptr, ptr %8, align 8, !tbaa !3
  %55 = getelementptr inbounds i64, ptr %54, i64 0
  %56 = load i32, ptr %11, align 4, !tbaa !8
  %57 = load ptr, ptr %10, align 8, !tbaa !3
  %58 = load i32, ptr %9, align 4, !tbaa !8
  %59 = sext i32 %58 to i64
  %60 = getelementptr inbounds i64, ptr %57, i64 %59
  call void @bn_mul_low_recursive(ptr noundef %49, ptr noundef %53, ptr noundef %55, i32 noundef %56, ptr noundef %60)
  %61 = load ptr, ptr %6, align 8, !tbaa !3
  %62 = load i32, ptr %11, align 4, !tbaa !8
  %63 = sext i32 %62 to i64
  %64 = getelementptr inbounds i64, ptr %61, i64 %63
  %65 = load ptr, ptr %6, align 8, !tbaa !3
  %66 = load i32, ptr %11, align 4, !tbaa !8
  %67 = sext i32 %66 to i64
  %68 = getelementptr inbounds i64, ptr %65, i64 %67
  %69 = load ptr, ptr %10, align 8, !tbaa !3
  %70 = getelementptr inbounds i64, ptr %69, i64 0
  %71 = load i32, ptr %11, align 4, !tbaa !8
  %72 = call i64 @bn_add_words(ptr noundef %64, ptr noundef %68, ptr noundef %70, i32 noundef %71)
  br label %120

73:                                               ; preds = %5
  %74 = load ptr, ptr %10, align 8, !tbaa !3
  %75 = getelementptr inbounds i64, ptr %74, i64 0
  %76 = load ptr, ptr %7, align 8, !tbaa !3
  %77 = getelementptr inbounds i64, ptr %76, i64 0
  %78 = load ptr, ptr %8, align 8, !tbaa !3
  %79 = load i32, ptr %11, align 4, !tbaa !8
  %80 = sext i32 %79 to i64
  %81 = getelementptr inbounds i64, ptr %78, i64 %80
  %82 = load i32, ptr %11, align 4, !tbaa !8
  call void @bn_mul_low_normal(ptr noundef %75, ptr noundef %77, ptr noundef %81, i32 noundef %82)
  %83 = load ptr, ptr %10, align 8, !tbaa !3
  %84 = load i32, ptr %11, align 4, !tbaa !8
  %85 = sext i32 %84 to i64
  %86 = getelementptr inbounds i64, ptr %83, i64 %85
  %87 = load ptr, ptr %7, align 8, !tbaa !3
  %88 = load i32, ptr %11, align 4, !tbaa !8
  %89 = sext i32 %88 to i64
  %90 = getelementptr inbounds i64, ptr %87, i64 %89
  %91 = load ptr, ptr %8, align 8, !tbaa !3
  %92 = getelementptr inbounds i64, ptr %91, i64 0
  %93 = load i32, ptr %11, align 4, !tbaa !8
  call void @bn_mul_low_normal(ptr noundef %86, ptr noundef %90, ptr noundef %92, i32 noundef %93)
  %94 = load ptr, ptr %6, align 8, !tbaa !3
  %95 = load i32, ptr %11, align 4, !tbaa !8
  %96 = sext i32 %95 to i64
  %97 = getelementptr inbounds i64, ptr %94, i64 %96
  %98 = load ptr, ptr %6, align 8, !tbaa !3
  %99 = load i32, ptr %11, align 4, !tbaa !8
  %100 = sext i32 %99 to i64
  %101 = getelementptr inbounds i64, ptr %98, i64 %100
  %102 = load ptr, ptr %10, align 8, !tbaa !3
  %103 = getelementptr inbounds i64, ptr %102, i64 0
  %104 = load i32, ptr %11, align 4, !tbaa !8
  %105 = call i64 @bn_add_words(ptr noundef %97, ptr noundef %101, ptr noundef %103, i32 noundef %104)
  %106 = load ptr, ptr %6, align 8, !tbaa !3
  %107 = load i32, ptr %11, align 4, !tbaa !8
  %108 = sext i32 %107 to i64
  %109 = getelementptr inbounds i64, ptr %106, i64 %108
  %110 = load ptr, ptr %6, align 8, !tbaa !3
  %111 = load i32, ptr %11, align 4, !tbaa !8
  %112 = sext i32 %111 to i64
  %113 = getelementptr inbounds i64, ptr %110, i64 %112
  %114 = load ptr, ptr %10, align 8, !tbaa !3
  %115 = load i32, ptr %11, align 4, !tbaa !8
  %116 = sext i32 %115 to i64
  %117 = getelementptr inbounds i64, ptr %114, i64 %116
  %118 = load i32, ptr %11, align 4, !tbaa !8
  %119 = call i64 @bn_add_words(ptr noundef %109, ptr noundef %113, ptr noundef %117, i32 noundef %118)
  br label %120

120:                                              ; preds = %73, %22
  call void @llvm.lifetime.end.p0(i64 4, ptr %11) #4
  ret void
}