; Function Attrs: nounwind uwtable
define void @bn_mul_low_recursive(ptr noundef %0, ptr noundef %1, ptr noundef %2, i32 noundef %3, ptr noundef %4) local_unnamed_addr #0 {
  %6 = sdiv i32 %3, 2
  tail call void @bn_mul_recursive(ptr noundef %0, ptr noundef %1, ptr noundef %2, i32 noundef %6, i32 noundef 0, i32 noundef 0, ptr noundef %4)
  %7 = icmp sgt i32 %3, 63
  br i1 %7, label %8, label %common.ret

common.ret56:                                     ; preds = %8, %common.ret
  ret void

8:                                                ; preds = %5
  %9 = zext nneg i32 %6 to i64
  %10 = getelementptr inbounds nuw i64, ptr %2, i64 %9
  %11 = zext nneg i32 %3 to i64
  %12 = getelementptr inbounds nuw i64, ptr %4, i64 %11
  tail call void @bn_mul_low_recursive(ptr noundef %4, ptr noundef %1, ptr noundef %10, i32 noundef %6, ptr noundef nonnull %12)
  %13 = getelementptr inbounds nuw i64, ptr %0, i64 %9
  %14 = tail call i64 @bn_add_words(ptr noundef %13, ptr noundef %13, ptr noundef %4, i32 noundef %6) #4
  %15 = getelementptr inbounds nuw i64, ptr %1, i64 %9
  tail call void @bn_mul_low_recursive(ptr noundef %4, ptr noundef %15, ptr noundef %2, i32 noundef %6, ptr noundef nonnull %12)
  %16 = tail call i64 @bn_add_words(ptr noundef %13, ptr noundef %13, ptr noundef %4, i32 noundef %6) #4
  br label %common.ret56

common.ret:                                       ; preds = %5
  %17 = sext i32 %6 to i64
  %18 = getelementptr inbounds i64, ptr %2, i64 %17
  tail call void @bn_mul_low_normal(ptr noundef %4, ptr noundef %1, ptr noundef %18, i32 noundef %6)
  %19 = getelementptr inbounds i64, ptr %4, i64 %17
  %20 = getelementptr inbounds i64, ptr %1, i64 %17
  tail call void @bn_mul_low_normal(ptr noundef %19, ptr noundef %20, ptr noundef %2, i32 noundef %6)
  %21 = getelementptr inbounds i64, ptr %0, i64 %17
  %22 = tail call i64 @bn_add_words(ptr noundef %21, ptr noundef %21, ptr noundef %4, i32 noundef %6) #4
  %23 = tail call i64 @bn_add_words(ptr noundef %21, ptr noundef %21, ptr noundef %19, i32 noundef %6) #4
  br label %common.ret56
}